target datalayout = "e-m:e-p270:32:32-p271:32:32-p272:64:64-i64:64-i128:128-f80:128-n8:16:32:64-S128"
target triple = "x86_64-pc-linux-gnu"

; Function Attrs: nounwind sspstrong uwtable
define hidden void @FLAC__lpc_window_data_wide(ptr noundef %0, ptr noundef %1, ptr noundef %2, i32 noundef %3) #0 {
  %5 = alloca ptr, align 8
  %6 = alloca ptr, align 8
  %7 = alloca ptr, align 8
  %8 = alloca i32, align 4
  %9 = alloca i32, align 4
  store ptr %0, ptr %5, align 8, !tbaa !16
  store ptr %1, ptr %6, align 8, !tbaa !8
  store ptr %2, ptr %7, align 8, !tbaa !8
  store i32 %3, ptr %8, align 4, !tbaa !10
  call void @llvm.lifetime.start.p0(i64 4, ptr %9) #5
  store i32 0, ptr %9, align 4, !tbaa !10
  br label %10

10:                                               ; preds = %31, %4
  %11 = load i32, ptr %9, align 4, !tbaa !10
  %12 = load i32, ptr %8, align 4, !tbaa !10
  %13 = icmp ult i32 %11, %12
  br i1 %13, label %14, label %34

14:                                               ; preds = %10
  %15 = load ptr, ptr %5, align 8, !tbaa !16
  %16 = load i32, ptr %9, align 4, !tbaa !10
  %17 = zext i32 %16 to i64
  %18 = getelementptr inbounds nuw i64, ptr %15, i64 %17
  %19 = load i64, ptr %18, align 8, !tbaa !18
  %20 = sitofp i64 %19 to float
  %21 = load ptr, ptr %6, align 8, !tbaa !8
  %22 = load i32, ptr %9, align 4, !tbaa !10
  %23 = zext i32 %22 to i64
  %24 = getelementptr inbounds nuw float, ptr %21, i64 %23
  %25 = load float, ptr %24, align 4, !tbaa !12
  %26 = fmul reassoc nsz arcp float %20, %25
  %27 = load ptr, ptr %7, align 8, !tbaa !8
  %28 = load i32, ptr %9, align 4, !tbaa !10
  %29 = zext i32 %28 to i64
  %30 = getelementptr inbounds nuw float, ptr %27, i64 %29
  store float %26, ptr %30, align 4, !tbaa !12
  br label %31

31:                                               ; preds = %14
  %32 = load i32, ptr %9, align 4, !tbaa !10
  %33 = add i32 %32, 1
  store i32 %33, ptr %9, align 4, !tbaa !10
  br label %10, !llvm.loop !20

34:                                               ; preds = %10
  call void @llvm.lifetime.end.p0(i64 4, ptr %9) #5
  ret void
}