; Function Attrs: nofree norecurse nosync nounwind sspstrong memory(argmem: readwrite) uwtable
define hidden void @FLAC__lpc_window_data_wide(ptr noundef readonly captures(none) %0, ptr noundef readonly captures(none) %1, ptr noundef writeonly captures(none) %2, i32 noundef %3) local_unnamed_addr #0 {
  %.not = icmp eq i32 %3, 0
  br i1 %.not, label %._crit_edge, label %.lr.ph.preheader

.lr.ph.preheader:                                 ; preds = %4
  %wide.trip.count = zext i32 %3 to i64
  br label %.lr.ph

.lr.ph:                                           ; preds = %.lr.ph.preheader, %.lr.ph
  %indvars.iv = phi i64 [ 0, %.lr.ph.preheader ], [ %indvars.iv.next, %.lr.ph ]
  %5 = getelementptr inbounds nuw i64, ptr %0, i64 %indvars.iv
  %6 = load i64, ptr %5, align 8, !tbaa !11
  %7 = sitofp i64 %6 to float
  %8 = getelementptr inbounds nuw float, ptr %1, i64 %indvars.iv
  %9 = load float, ptr %8, align 4, !tbaa !7
  %10 = fmul reassoc nsz arcp float %9, %7
  %11 = getelementptr inbounds nuw float, ptr %2, i64 %indvars.iv
  store float %10, ptr %11, align 4, !tbaa !7
  %indvars.iv.next = add nuw nsw i64 %indvars.iv, 1
  %exitcond.not = icmp eq i64 %indvars.iv.next, %wide.trip.count
  br i1 %exitcond.not, label %._crit_edge, label %.lr.ph, !llvm.loop !13

._crit_edge:                                      ; preds = %.lr.ph, %4
  ret void
}